target datalayout = "e-m:e-p270:32:32-p271:32:32-p272:64:64-i64:64-i128:128-f80:128-n8:16:32:64-S128"
target triple = "x86_64-pc-linux-gnu"

%struct.lua_State = type { i8, i8, i8, i8, i8, i8, i8, ptr, ptr, ptr, ptr, ptr, ptr, ptr, ptr, i32, i32, i16, i16, i32, ptr, ptr, ptr, ptr, ptr }
%struct.global_State = type { %struct.stringtable, ptr, ptr, i8, i8, ptr, ptr, ptr, i64, i64, i32, i32, i32, [40 x ptr], [40 x ptr], ptr, ptr, ptr, [256 x i64], ptr, %struct.UpVal, [11 x ptr], [11 x ptr], [21 x ptr], %struct.lua_TValue, %struct.lua_TValue, i32, ptr, i64, [4 x i64], %struct.lua_Callbacks, %struct.lua_ExecutionCallbacks, [128 x ptr], [128 x ptr], [128 x ptr], %struct.GCStats }
%struct.stringtable = type { ptr, i32, i32 }
%struct.UpVal = type { i8, i8, i8, i8, ptr, %union.anon }
%union.anon = type { %struct.anon }
%struct.anon = type { ptr, ptr, ptr }
%struct.lua_TValue = type { %union.Value, [1 x i32], i32 }
%union.Value = type { ptr }
%struct.lua_Callbacks = type { ptr, ptr, ptr, ptr, ptr, ptr, ptr, ptr, ptr }
%struct.lua_ExecutionCallbacks = type { ptr, ptr, ptr, ptr, ptr, ptr, ptr }
%struct.GCStats = type { [32 x i32], i32, i32, i64, i64, i64, double, double, double }

; Function Attrs: mustprogress uwtable
define hidden noundef i64 @_Z19luaC_allocationrateP9lua_State(ptr noundef %0) #0 {
  %2 = alloca i64, align 8
  %3 = alloca ptr, align 8
  %4 = alloca ptr, align 8
  %5 = alloca double, align 8
  %6 = alloca double, align 8
  %7 = alloca double, align 8
  store ptr %0, ptr %3, align 8
  %8 = load ptr, ptr %3, align 8
  %9 = getelementptr inbounds %struct.lua_State, ptr %8, i32 0, i32 9
  %10 = load ptr, ptr %9, align 8
  store ptr %10, ptr %4, align 8
  store double 1.000000e-03, ptr %5, align 8
  %11 = load ptr, ptr %4, align 8
  %12 = getelementptr inbounds %struct.global_State, ptr %11, i32 0, i32 4
  %13 = load i8, ptr %12, align 1
  %14 = zext i8 %13 to i32
  %15 = icmp sle i32 %14, 3
  br i1 %15, label %16, label %39

16:                                               ; preds = %1
  %17 = call noundef double @_Z9lua_clockv()
  %18 = load ptr, ptr %4, align 8
  %19 = getelementptr inbounds %struct.global_State, ptr %18, i32 0, i32 35
  %20 = getelementptr inbounds %struct.GCStats, ptr %19, i32 0, i32 8
  %21 = load double, ptr %20, align 8
  %22 = fsub double %17, %21
  store double %22, ptr %6, align 8
  %23 = load double, ptr %6, align 8
  %24 = fcmp olt double %23, 1.000000e-03
  br i1 %24, label %25, label %26

25:                                               ; preds = %16
  store i64 -1, ptr %2, align 8
  br label %66

26:                                               ; preds = %16
  %27 = load ptr, ptr %4, align 8
  %28 = getelementptr inbounds %struct.global_State, ptr %27, i32 0, i32 9
  %29 = load i64, ptr %28, align 8
  %30 = load ptr, ptr %4, align 8
  %31 = getelementptr inbounds %struct.global_State, ptr %30, i32 0, i32 35
  %32 = getelementptr inbounds %struct.GCStats, ptr %31, i32 0, i32 4
  %33 = load i64, ptr %32, align 8
  %34 = sub i64 %29, %33
  %35 = uitofp i64 %34 to double
  %36 = load double, ptr %6, align 8
  %37 = fdiv double %35, %36
  %38 = fptosi double %37 to i64
  store i64 %38, ptr %2, align 8
  br label %66

39:                                               ; preds = %1
  %40 = load ptr, ptr %4, align 8
  %41 = getelementptr inbounds %struct.global_State, ptr %40, i32 0, i32 35
  %42 = getelementptr inbounds %struct.GCStats, ptr %41, i32 0, i32 7
  %43 = load double, ptr %42, align 8
  %44 = load ptr, ptr %4, align 8
  %45 = getelementptr inbounds %struct.global_State, ptr %44, i32 0, i32 35
  %46 = getelementptr inbounds %struct.GCStats, ptr %45, i32 0, i32 8
  %47 = load double, ptr %46, align 8
  %48 = fsub double %43, %47
  store double %48, ptr %7, align 8
  %49 = load double, ptr %7, align 8
  %50 = fcmp olt double %49, 1.000000e-03
  br i1 %50, label %51, label %52

51:                                               ; preds = %39
  store i64 -1, ptr %2, align 8
  br label %66

52:                                               ; preds = %39
  %53 = load ptr, ptr %4, align 8
  %54 = getelementptr inbounds %struct.global_State, ptr %53, i32 0, i32 35
  %55 = getelementptr inbounds %struct.GCStats, ptr %54, i32 0, i32 3
  %56 = load i64, ptr %55, align 8
  %57 = load ptr, ptr %4, align 8
  %58 = getelementptr inbounds %struct.global_State, ptr %57, i32 0, i32 35
  %59 = getelementptr inbounds %struct.GCStats, ptr %58, i32 0, i32 4
  %60 = load i64, ptr %59, align 8
  %61 = sub i64 %56, %60
  %62 = uitofp i64 %61 to double
  %63 = load double, ptr %7, align 8
  %64 = fdiv double %62, %63
  %65 = fptosi double %64 to i64
  store i64 %65, ptr %2, align 8
  br label %66

66:                                               ; preds = %52, %51, %26, %25
  %67 = load i64, ptr %2, align 8
  ret i64 %67
}