; Function Attrs: mustprogress uwtable
define hidden noundef i64 @_Z19luaC_allocationrateP9lua_State(ptr nocapture noundef readonly %0) local_unnamed_addr #0 {
  %2 = getelementptr inbounds i8, ptr %0, i64 24
  %3 = load ptr, ptr %2, align 8
  %4 = getelementptr inbounds i8, ptr %3, i64 33
  %5 = load i8, ptr %4, align 1
  %6 = icmp ult i8 %5, 4
  br i1 %6, label %7, label %13

7:                                                ; preds = %1
  %8 = tail call noundef double @_Z9lua_clockv()
  %9 = getelementptr inbounds i8, ptr %3, i64 6664
  %10 = load double, ptr %9, align 8
  %11 = fsub double %8, %10
  %12 = fcmp olt double %11, 1.000000e-03
  br i1 %12, label %28, label %.sink.split

13:                                               ; preds = %1
  %14 = getelementptr inbounds i8, ptr %3, i64 6656
  %15 = load double, ptr %14, align 8
  %16 = getelementptr inbounds i8, ptr %3, i64 6664
  %17 = load double, ptr %16, align 8
  %18 = fsub double %15, %17
  %19 = fcmp olt double %18, 1.000000e-03
  br i1 %19, label %28, label %.sink.split

.sink.split:                                      ; preds = %13, %7
  %.sink19 = phi i64 [ 72, %7 ], [ 6624, %13 ]
  %.sink16 = phi double [ %11, %7 ], [ %18, %13 ]
  %20 = getelementptr inbounds i8, ptr %3, i64 %.sink19
  %21 = load i64, ptr %20, align 8
  %22 = getelementptr inbounds i8, ptr %3, i64 6632
  %23 = load i64, ptr %22, align 8
  %24 = sub i64 %21, %23
  %25 = uitofp i64 %24 to double
  %26 = fdiv double %25, %.sink16
  %27 = fptosi double %26 to i64
  br label %28

28:                                               ; preds = %.sink.split, %13, %7
  %.0 = phi i64 [ -1, %7 ], [ -1, %13 ], [ %27, %.sink.split ]
  ret i64 %.0
}